; Function Attrs: nounwind uwtable
define ptr @l_Lean_RBMap_ofList___rarg(ptr noundef %0, ptr noundef %1) #1 {
  %3 = ptrtoint ptr %1 to i64
  %4 = and i64 %3, 1
  %.not.i32 = icmp eq i64 %4, 0
  br i1 %.not.i32, label %8, label %5

5:                                                ; preds = %2
  %6 = lshr i64 %3, 1
  %7 = trunc i64 %6 to i32
  br label %lean_obj_tag.exit

8:                                                ; preds = %2
  %9 = getelementptr i8, ptr %1, i64 4
  %.val.i = load i32, ptr %9, align 4
  %10 = lshr i32 %.val.i, 24
  br label %lean_obj_tag.exit

lean_obj_tag.exit:                                ; preds = %5, %8
  %.0.i = phi i32 [ %7, %5 ], [ %10, %8 ]
  %11 = icmp eq i32 %.0.i, 0
  br i1 %11, label %12, label %22

12:                                               ; preds = %lean_obj_tag.exit
  %13 = ptrtoint ptr %0 to i64
  %14 = and i64 %13, 1
  %.not54 = icmp eq i64 %14, 0
  br i1 %.not54, label %15, label %lean_dec.exit23

15:                                               ; preds = %12
  %16 = load i32, ptr %0, align 4, !tbaa !4
  %17 = icmp sgt i32 %16, 1
  br i1 %17, label %18, label %20, !prof !9

18:                                               ; preds = %15
  %19 = add nsw i32 %16, -1
  store i32 %19, ptr %0, align 4, !tbaa !4
  br label %lean_dec.exit23

20:                                               ; preds = %15
  %.not.i = icmp eq i32 %16, 0
  br i1 %.not.i, label %lean_dec.exit23, label %21

21:                                               ; preds = %20
  tail call void @lean_dec_ref_cold(ptr noundef nonnull %0) #9
  br label %lean_dec.exit23

22:                                               ; preds = %lean_obj_tag.exit
  %23 = getelementptr inbounds nuw i8, ptr %1, i64 8
  %24 = load ptr, ptr %23, align 8, !tbaa !10
  %25 = ptrtoint ptr %24 to i64
  %26 = and i64 %25, 1
  %.not = icmp eq i64 %26, 0
  br i1 %.not, label %27, label %lean_inc.exit27

27:                                               ; preds = %22
  %.val.i33 = load i32, ptr %24, align 4, !tbaa !4
  %28 = icmp sgt i32 %.val.i33, 0
  br i1 %28, label %29, label %31, !prof !9

29:                                               ; preds = %27
  %30 = add nuw i32 %.val.i33, 1
  store i32 %30, ptr %24, align 4, !tbaa !4
  br label %lean_inc.exit27

31:                                               ; preds = %27
  %.not.i34 = icmp eq i32 %.val.i33, 0
  br i1 %.not.i34, label %lean_inc.exit27, label %32

32:                                               ; preds = %31
  tail call void @lean_inc_ref_cold(ptr noundef nonnull %24) #9
  br label %lean_inc.exit27

lean_inc.exit27:                                  ; preds = %32, %31, %29, %22
  %33 = getelementptr inbounds nuw i8, ptr %1, i64 16
  %34 = load ptr, ptr %33, align 8, !tbaa !10
  %35 = ptrtoint ptr %34 to i64
  %36 = and i64 %35, 1
  %.not49 = icmp eq i64 %36, 0
  br i1 %.not49, label %37, label %lean_inc.exit26

37:                                               ; preds = %lean_inc.exit27
  %.val.i35 = load i32, ptr %34, align 4, !tbaa !4
  %38 = icmp sgt i32 %.val.i35, 0
  br i1 %38, label %39, label %41, !prof !9

39:                                               ; preds = %37
  %40 = add nuw i32 %.val.i35, 1
  store i32 %40, ptr %34, align 4, !tbaa !4
  br label %lean_inc.exit26

41:                                               ; preds = %37
  %.not.i36 = icmp eq i32 %.val.i35, 0
  br i1 %.not.i36, label %lean_inc.exit26, label %42

42:                                               ; preds = %41
  tail call void @lean_inc_ref_cold(ptr noundef nonnull %34) #9
  br label %lean_inc.exit26

lean_inc.exit26:                                  ; preds = %42, %41, %39, %lean_inc.exit27
  br i1 %.not.i32, label %43, label %lean_dec.exit22

43:                                               ; preds = %lean_inc.exit26
  %44 = load i32, ptr %1, align 4, !tbaa !4
  %45 = icmp sgt i32 %44, 1
  br i1 %45, label %46, label %48, !prof !9

46:                                               ; preds = %43
  %47 = add nsw i32 %44, -1
  store i32 %47, ptr %1, align 4, !tbaa !4
  br label %lean_dec.exit22

48:                                               ; preds = %43
  %.not.i28 = icmp eq i32 %44, 0
  br i1 %.not.i28, label %lean_dec.exit22, label %49

49:                                               ; preds = %48
  tail call void @lean_dec_ref_cold(ptr noundef nonnull %1) #9
  br label %lean_dec.exit22

lean_dec.exit22:                                  ; preds = %49, %48, %46, %lean_inc.exit26
  %50 = getelementptr inbounds nuw i8, ptr %24, i64 8
  %51 = load ptr, ptr %50, align 8, !tbaa !10
  %52 = ptrtoint ptr %51 to i64
  %53 = and i64 %52, 1
  %.not51 = icmp eq i64 %53, 0
  br i1 %.not51, label %54, label %lean_inc.exit25

54:                                               ; preds = %lean_dec.exit22
  %.val.i38 = load i32, ptr %51, align 4, !tbaa !4
  %55 = icmp sgt i32 %.val.i38, 0
  br i1 %55, label %56, label %58, !prof !9

56:                                               ; preds = %54
  %57 = add nuw i32 %.val.i38, 1
  store i32 %57, ptr %51, align 4, !tbaa !4
  br label %lean_inc.exit25

58:                                               ; preds = %54
  %.not.i39 = icmp eq i32 %.val.i38, 0
  br i1 %.not.i39, label %lean_inc.exit25, label %59

59:                                               ; preds = %58
  tail call void @lean_inc_ref_cold(ptr noundef nonnull %51) #9
  br label %lean_inc.exit25

lean_inc.exit25:                                  ; preds = %59, %58, %56, %lean_dec.exit22
  %60 = getelementptr inbounds nuw i8, ptr %24, i64 16
  %61 = load ptr, ptr %60, align 8, !tbaa !10
  %62 = ptrtoint ptr %61 to i64
  %63 = and i64 %62, 1
  %.not52 = icmp eq i64 %63, 0
  br i1 %.not52, label %64, label %lean_inc.exit24

64:                                               ; preds = %lean_inc.exit25
  %.val.i41 = load i32, ptr %61, align 4, !tbaa !4
  %65 = icmp sgt i32 %.val.i41, 0
  br i1 %65, label %66, label %68, !prof !9

66:                                               ; preds = %64
  %67 = add nuw i32 %.val.i41, 1
  store i32 %67, ptr %61, align 4, !tbaa !4
  br label %lean_inc.exit24

68:                                               ; preds = %64
  %.not.i42 = icmp eq i32 %.val.i41, 0
  br i1 %.not.i42, label %lean_inc.exit24, label %69

69:                                               ; preds = %68
  tail call void @lean_inc_ref_cold(ptr noundef nonnull %61) #9
  br label %lean_inc.exit24

lean_inc.exit24:                                  ; preds = %69, %68, %66, %lean_inc.exit25
  br i1 %.not, label %70, label %lean_dec.exit

70:                                               ; preds = %lean_inc.exit24
  %71 = load i32, ptr %24, align 4, !tbaa !4
  %72 = icmp sgt i32 %71, 1
  br i1 %72, label %73, label %75, !prof !9

73:                                               ; preds = %70
  %74 = add nsw i32 %71, -1
  store i32 %74, ptr %24, align 4, !tbaa !4
  br label %lean_dec.exit

75:                                               ; preds = %70
  %.not.i30 = icmp eq i32 %71, 0
  br i1 %.not.i30, label %lean_dec.exit, label %76

76:                                               ; preds = %75
  tail call void @lean_dec_ref_cold(ptr noundef nonnull %24) #9
  br label %lean_dec.exit

lean_dec.exit:                                    ; preds = %76, %75, %73, %lean_inc.exit24
  %77 = ptrtoint ptr %0 to i64
  %78 = and i64 %77, 1
  %.not53 = icmp eq i64 %78, 0
  br i1 %.not53, label %79, label %lean_inc.exit

79:                                               ; preds = %lean_dec.exit
  %.val.i44 = load i32, ptr %0, align 4, !tbaa !4
  %80 = icmp sgt i32 %.val.i44, 0
  br i1 %80, label %81, label %83, !prof !9

81:                                               ; preds = %79
  %82 = add nuw i32 %.val.i44, 1
  store i32 %82, ptr %0, align 4, !tbaa !4
  br label %lean_inc.exit

83:                                               ; preds = %79
  %.not.i45 = icmp eq i32 %.val.i44, 0
  br i1 %.not.i45, label %lean_inc.exit, label %84

84:                                               ; preds = %83
  tail call void @lean_inc_ref_cold(ptr noundef nonnull %0) #9
  br label %lean_inc.exit

lean_inc.exit:                                    ; preds = %84, %83, %81, %lean_dec.exit
  %85 = tail call ptr @l_Lean_RBMap_ofList___rarg(ptr noundef %0, ptr noundef %34)
  %86 = ptrtoint ptr %85 to i64
  %87 = and i64 %86, 1
  %.not.i.i.i = icmp eq i64 %87, 0
  br i1 %.not.i.i.i, label %91, label %88

88:                                               ; preds = %lean_inc.exit
  %89 = lshr i64 %86, 1
  %90 = trunc i64 %89 to i32
  br label %lean_obj_tag.exit.i.i

91:                                               ; preds = %lean_inc.exit
  %92 = getelementptr i8, ptr %85, i64 4
  %.val.i.i.i = load i32, ptr %92, align 4
  %93 = lshr i32 %.val.i.i.i, 24
  br label %lean_obj_tag.exit.i.i

lean_obj_tag.exit.i.i:                            ; preds = %91, %88
  %.0.i.i.i = phi i32 [ %90, %88 ], [ %93, %91 ]
  %94 = icmp eq i32 %.0.i.i.i, 0
  br i1 %94, label %l_Lean_RBNode_isRed___rarg.exit.thread.i, label %l_Lean_RBNode_isRed___rarg.exit.i

l_Lean_RBNode_isRed___rarg.exit.i:                ; preds = %lean_obj_tag.exit.i.i
  %95 = getelementptr i8, ptr %85, i64 40
  %.val.i.i = load i8, ptr %95, align 1, !tbaa !18
  %.not.i47 = icmp eq i8 %.val.i.i, 0
  br i1 %.not.i47, label %97, label %l_Lean_RBNode_isRed___rarg.exit.thread.i

l_Lean_RBNode_isRed___rarg.exit.thread.i:         ; preds = %l_Lean_RBNode_isRed___rarg.exit.i, %lean_obj_tag.exit.i.i
  %96 = tail call ptr @l_Lean_RBNode_ins___rarg(ptr noundef %0, ptr noundef %85, ptr noundef %51, ptr noundef %61)
  br label %lean_dec.exit23

97:                                               ; preds = %l_Lean_RBNode_isRed___rarg.exit.i
  %98 = tail call ptr @l_Lean_RBNode_ins___rarg(ptr noundef %0, ptr noundef nonnull %85, ptr noundef %51, ptr noundef %61)
  %99 = tail call ptr @l_Lean_RBNode_setBlack___rarg(ptr noundef %98)
  br label %lean_dec.exit23

lean_dec.exit23:                                  ; preds = %97, %l_Lean_RBNode_isRed___rarg.exit.thread.i, %12, %18, %20, %21
  %.0 = phi ptr [ inttoptr (i64 1 to ptr), %21 ], [ inttoptr (i64 1 to ptr), %20 ], [ inttoptr (i64 1 to ptr), %18 ], [ inttoptr (i64 1 to ptr), %12 ], [ %96, %l_Lean_RBNode_isRed___rarg.exit.thread.i ], [ %99, %97 ]
  ret ptr %.0
}